target datalayout = "e-m:e-p270:32:32-p271:32:32-p272:64:64-i64:64-i128:128-f80:128-n8:16:32:64-S128"
target triple = "x86_64-pc-linux-gnu"

%struct._object = type { %union.anon, ptr }
%union.anon = type { i64 }
%struct.PyType_Spec = type { ptr, i32, i32, i32, ptr }
%struct._typeobject = type { %struct.PyVarObject, ptr, i64, i64, ptr, i64, ptr, ptr, ptr, ptr, ptr, ptr, ptr, ptr, ptr, ptr, ptr, ptr, ptr, i64, ptr, ptr, ptr, ptr, i64, ptr, ptr, ptr, ptr, ptr, ptr, ptr, ptr, ptr, i64, ptr, ptr, ptr, ptr, ptr, ptr, ptr, ptr, ptr, ptr, ptr, i32, ptr, ptr, i8, i16 }
%struct.PyVarObject = type { %struct._object, i64 }
%struct.anon = type { i32, i32 }

@_PyMp_SemLockType_spec = external global %struct.PyType_Spec, align 8
@.str.8 = private unnamed_addr constant [14 x i8] c"SEM_VALUE_MAX\00", align 1
@.str.9 = private unnamed_addr constant [14 x i8] c"HAVE_SEM_OPEN\00", align 1
@.str.10 = private unnamed_addr constant [19 x i8] c"HAVE_SEM_TIMEDWAIT\00", align 1
@.str.11 = private unnamed_addr constant [6 x i8] c"flags\00", align 1

; Function Attrs: alwaysinline nounwind uwtable
define internal i32 @_Py_IsImmortal(ptr noundef %0) #5 {
  %2 = alloca ptr, align 8
  store ptr %0, ptr %2, align 8, !tbaa !3
  %3 = load ptr, ptr %2, align 8, !tbaa !3
  %4 = getelementptr inbounds nuw %struct._object, ptr %3, i32 0, i32 0
  %5 = getelementptr inbounds nuw %struct.anon, ptr %4, i32 0, i32 0
  %6 = load i32, ptr %5, align 8, !tbaa !26
  %7 = icmp slt i32 %6, 0
  %8 = zext i1 %7 to i32
  ret i32 %8
}

; Function Attrs: alwaysinline nounwind uwtable
define internal void @Py_DECREF(ptr noundef %0) #5 {
  %2 = alloca ptr, align 8
  store ptr %0, ptr %2, align 8, !tbaa !3
  %3 = load ptr, ptr %2, align 8, !tbaa !3
  %4 = call i32 @_Py_IsImmortal(ptr noundef %3)
  %5 = icmp ne i32 %4, 0
  br i1 %5, label %6, label %7

6:                                                ; preds = %1
  br label %16

7:                                                ; preds = %1
  %8 = load ptr, ptr %2, align 8, !tbaa !3
  %9 = getelementptr inbounds nuw %struct._object, ptr %8, i32 0, i32 0
  %10 = getelementptr inbounds nuw %struct.anon, ptr %9, i32 0, i32 0
  %11 = load i32, ptr %10, align 8, !tbaa !26
  %12 = add i32 %11, -1
  store i32 %12, ptr %10, align 8, !tbaa !26
  %13 = icmp eq i32 %12, 0
  br i1 %13, label %14, label %16

14:                                               ; preds = %7
  %15 = load ptr, ptr %2, align 8, !tbaa !3
  call void @_Py_Dealloc(ptr noundef %15)
  br label %16

16:                                               ; preds = %6, %14, %7
  ret void
}

; Function Attrs: nounwind uwtable
define internal i32 @multiprocessing_exec(ptr noundef %0) #0 {
  %2 = alloca i32, align 4
  %3 = alloca ptr, align 8
  %4 = alloca ptr, align 8
  %5 = alloca i32, align 4
  %6 = alloca i32, align 4
  %7 = alloca ptr, align 8
  %8 = alloca ptr, align 8
  %9 = alloca ptr, align 8
  %10 = alloca ptr, align 8
  store ptr %0, ptr %3, align 8, !tbaa !3
  call void @llvm.lifetime.start.p0(i64 8, ptr %4) #6
  %11 = load ptr, ptr %3, align 8, !tbaa !3
  %12 = call ptr @PyType_FromModuleAndSpec(ptr noundef %11, ptr noundef @_PyMp_SemLockType_spec, ptr noundef null)
  store ptr %12, ptr %4, align 8, !tbaa !14
  %13 = load ptr, ptr %4, align 8, !tbaa !14
  %14 = icmp eq ptr %13, null
  br i1 %14, label %15, label %16

15:                                               ; preds = %1
  store i32 -1, ptr %2, align 4
  store i32 1, ptr %5, align 4
  br label %96

16:                                               ; preds = %1
  call void @llvm.lifetime.start.p0(i64 4, ptr %6) #6
  %17 = load ptr, ptr %3, align 8, !tbaa !3
  %18 = load ptr, ptr %4, align 8, !tbaa !14
  %19 = call i32 @PyModule_AddType(ptr noundef %17, ptr noundef %18)
  store i32 %19, ptr %6, align 4, !tbaa !8
  %20 = load ptr, ptr %4, align 8, !tbaa !14
  call void @Py_DECREF(ptr noundef %20)
  %21 = load i32, ptr %6, align 4, !tbaa !8
  %22 = icmp slt i32 %21, 0
  br i1 %22, label %23, label %24

23:                                               ; preds = %16
  store i32 -1, ptr %2, align 4
  store i32 1, ptr %5, align 4
  br label %95

24:                                               ; preds = %16
  call void @llvm.lifetime.start.p0(i64 8, ptr %7) #6
  %25 = call ptr @PyLong_FromLong(i64 noundef 2147483647)
  store ptr %25, ptr %7, align 8, !tbaa !3
  %26 = load ptr, ptr %7, align 8, !tbaa !3
  %27 = icmp eq ptr %26, null
  br i1 %27, label %28, label %29

28:                                               ; preds = %24
  store i32 -1, ptr %2, align 4
  store i32 1, ptr %5, align 4
  br label %94

29:                                               ; preds = %24
  %30 = load ptr, ptr %4, align 8, !tbaa !14
  %31 = getelementptr inbounds nuw %struct._typeobject, ptr %30, i32 0, i32 31
  %32 = load ptr, ptr %31, align 8, !tbaa !25
  %33 = load ptr, ptr %7, align 8, !tbaa !3
  %34 = call i32 @PyDict_SetItemString(ptr noundef %32, ptr noundef @.str.8, ptr noundef %33)
  %35 = icmp slt i32 %34, 0
  br i1 %35, label %36, label %38

36:                                               ; preds = %29
  %37 = load ptr, ptr %7, align 8, !tbaa !3
  call void @Py_DECREF(ptr noundef %37)
  store i32 -1, ptr %2, align 4
  store i32 1, ptr %5, align 4
  br label %94

38:                                               ; preds = %29
  %39 = load ptr, ptr %7, align 8, !tbaa !3
  call void @Py_DECREF(ptr noundef %39)
  call void @llvm.lifetime.start.p0(i64 8, ptr %8) #6
  %40 = call ptr @PyDict_New()
  store ptr %40, ptr %8, align 8, !tbaa !3
  %41 = load ptr, ptr %8, align 8, !tbaa !3
  %42 = icmp ne ptr %41, null
  br i1 %42, label %44, label %43

43:                                               ; preds = %38
  store i32 -1, ptr %2, align 4
  store i32 1, ptr %5, align 4
  br label %93

44:                                               ; preds = %38
  br label %45

45:                                               ; preds = %44
  call void @llvm.lifetime.start.p0(i64 8, ptr %9) #6
  %46 = call ptr @PyLong_FromLong(i64 noundef 1)
  store ptr %46, ptr %9, align 8, !tbaa !3
  %47 = load ptr, ptr %9, align 8, !tbaa !3
  %48 = icmp eq ptr %47, null
  br i1 %48, label %49, label %51

49:                                               ; preds = %45
  %50 = load ptr, ptr %8, align 8, !tbaa !3
  call void @Py_DECREF(ptr noundef %50)
  store i32 -1, ptr %2, align 4
  store i32 1, ptr %5, align 4
  br label %61

51:                                               ; preds = %45
  %52 = load ptr, ptr %8, align 8, !tbaa !3
  %53 = load ptr, ptr %9, align 8, !tbaa !3
  %54 = call i32 @PyDict_SetItemString(ptr noundef %52, ptr noundef @.str.9, ptr noundef %53)
  %55 = icmp slt i32 %54, 0
  br i1 %55, label %56, label %59

56:                                               ; preds = %51
  %57 = load ptr, ptr %8, align 8, !tbaa !3
  call void @Py_DECREF(ptr noundef %57)
  %58 = load ptr, ptr %9, align 8, !tbaa !3
  call void @Py_DECREF(ptr noundef %58)
  store i32 -1, ptr %2, align 4
  store i32 1, ptr %5, align 4
  br label %61

59:                                               ; preds = %51
  %60 = load ptr, ptr %9, align 8, !tbaa !3
  call void @Py_DECREF(ptr noundef %60)
  store i32 0, ptr %5, align 4
  br label %61

61:                                               ; preds = %59, %56, %49
  call void @llvm.lifetime.end.p0(i64 8, ptr %9) #6
  %62 = load i32, ptr %5, align 4
  switch i32 %62, label %93 [
    i32 0, label %63
  ]

63:                                               ; preds = %61
  br label %64

64:                                               ; preds = %63
  br label %65

65:                                               ; preds = %64
  br label %66

66:                                               ; preds = %65
  call void @llvm.lifetime.start.p0(i64 8, ptr %10) #6
  %67 = call ptr @PyLong_FromLong(i64 noundef 1)
  store ptr %67, ptr %10, align 8, !tbaa !3
  %68 = load ptr, ptr %10, align 8, !tbaa !3
  %69 = icmp eq ptr %68, null
  br i1 %69, label %70, label %72

70:                                               ; preds = %66
  %71 = load ptr, ptr %8, align 8, !tbaa !3
  call void @Py_DECREF(ptr noundef %71)
  store i32 -1, ptr %2, align 4
  store i32 1, ptr %5, align 4
  br label %82

72:                                               ; preds = %66
  %73 = load ptr, ptr %8, align 8, !tbaa !3
  %74 = load ptr, ptr %10, align 8, !tbaa !3
  %75 = call i32 @PyDict_SetItemString(ptr noundef %73, ptr noundef @.str.10, ptr noundef %74)
  %76 = icmp slt i32 %75, 0
  br i1 %76, label %77, label %80

77:                                               ; preds = %72
  %78 = load ptr, ptr %8, align 8, !tbaa !3
  call void @Py_DECREF(ptr noundef %78)
  %79 = load ptr, ptr %10, align 8, !tbaa !3
  call void @Py_DECREF(ptr noundef %79)
  store i32 -1, ptr %2, align 4
  store i32 1, ptr %5, align 4
  br label %82

80:                                               ; preds = %72
  %81 = load ptr, ptr %10, align 8, !tbaa !3
  call void @Py_DECREF(ptr noundef %81)
  store i32 0, ptr %5, align 4
  br label %82

82:                                               ; preds = %80, %77, %70
  call void @llvm.lifetime.end.p0(i64 8, ptr %10) #6
  %83 = load i32, ptr %5, align 4
  switch i32 %83, label %93 [
    i32 0, label %84
  ]

84:                                               ; preds = %82
  br label %85

85:                                               ; preds = %84
  br label %86

86:                                               ; preds = %85
  %87 = load ptr, ptr %3, align 8, !tbaa !3
  %88 = load ptr, ptr %8, align 8, !tbaa !3
  %89 = call i32 @PyModule_Add(ptr noundef %87, ptr noundef @.str.11, ptr noundef %88)
  %90 = icmp slt i32 %89, 0
  br i1 %90, label %91, label %92

91:                                               ; preds = %86
  store i32 -1, ptr %2, align 4
  store i32 1, ptr %5, align 4
  br label %93

92:                                               ; preds = %86
  store i32 0, ptr %2, align 4
  store i32 1, ptr %5, align 4
  br label %93

93:                                               ; preds = %92, %91, %82, %61, %43
  call void @llvm.lifetime.end.p0(i64 8, ptr %8) #6
  br label %94

94:                                               ; preds = %93, %36, %28
  call void @llvm.lifetime.end.p0(i64 8, ptr %7) #6
  br label %95

95:                                               ; preds = %94, %23
  call void @llvm.lifetime.end.p0(i64 4, ptr %6) #6
  br label %96

96:                                               ; preds = %95, %15
  call void @llvm.lifetime.end.p0(i64 8, ptr %4) #6
  %97 = load i32, ptr %2, align 4
  ret i32 %97
}