; Function Attrs: nounwind uwtable
define internal range(i32 -1, 1) i32 @multiprocessing_exec(ptr noundef %0) #0 {
  %2 = tail call ptr @PyType_FromModuleAndSpec(ptr noundef %0, ptr noundef nonnull @_PyMp_SemLockType_spec, ptr noundef null) #3
  %3 = icmp eq ptr %2, null
  br i1 %3, label %.critedge, label %4

4:                                                ; preds = %1
  %5 = tail call i32 @PyModule_AddType(ptr noundef %0, ptr noundef nonnull %2) #3
  %6 = load i32, ptr %2, align 8, !tbaa !22
  %.not.i = icmp sgt i32 %6, -1
  br i1 %.not.i, label %7, label %Py_DECREF.exit

7:                                                ; preds = %4
  %8 = add nsw i32 %6, -1
  store i32 %8, ptr %2, align 8, !tbaa !22
  %9 = icmp eq i32 %8, 0
  br i1 %9, label %10, label %Py_DECREF.exit

10:                                               ; preds = %7
  tail call void @_Py_Dealloc(ptr noundef nonnull %2) #3
  br label %Py_DECREF.exit

Py_DECREF.exit:                                   ; preds = %4, %7, %10
  %11 = icmp slt i32 %5, 0
  br i1 %11, label %.critedge, label %12

12:                                               ; preds = %Py_DECREF.exit
  %13 = tail call ptr @PyLong_FromLong(i64 noundef 2147483647) #3
  %14 = icmp eq ptr %13, null
  br i1 %14, label %.critedge, label %15

15:                                               ; preds = %12
  %16 = getelementptr inbounds nuw i8, ptr %2, i64 264
  %17 = load ptr, ptr %16, align 8, !tbaa !23
  %18 = tail call i32 @PyDict_SetItemString(ptr noundef %17, ptr noundef nonnull @.str.8, ptr noundef nonnull %13) #3
  %19 = icmp slt i32 %18, 0
  %20 = load i32, ptr %13, align 8, !tbaa !22
  %.not.i40 = icmp sgt i32 %20, -1
  br i1 %19, label %21, label %26

21:                                               ; preds = %15
  br i1 %.not.i40, label %22, label %.critedge

22:                                               ; preds = %21
  %23 = add nsw i32 %20, -1
  store i32 %23, ptr %13, align 8, !tbaa !22
  %24 = icmp eq i32 %23, 0
  br i1 %24, label %25, label %.critedge

25:                                               ; preds = %22
  tail call void @_Py_Dealloc(ptr noundef nonnull %13) #3
  br label %.critedge

26:                                               ; preds = %15
  br i1 %.not.i40, label %27, label %Py_DECREF.exit43

27:                                               ; preds = %26
  %28 = add nsw i32 %20, -1
  store i32 %28, ptr %13, align 8, !tbaa !22
  %29 = icmp eq i32 %28, 0
  br i1 %29, label %30, label %Py_DECREF.exit43

30:                                               ; preds = %27
  tail call void @_Py_Dealloc(ptr noundef nonnull %13) #3
  br label %Py_DECREF.exit43

Py_DECREF.exit43:                                 ; preds = %26, %27, %30
  %31 = tail call ptr @PyDict_New() #3
  %.not = icmp eq ptr %31, null
  br i1 %.not, label %.critedge, label %32

32:                                               ; preds = %Py_DECREF.exit43
  %33 = tail call ptr @PyLong_FromLong(i64 noundef 1) #3
  %34 = icmp eq ptr %33, null
  br i1 %34, label %35, label %41

35:                                               ; preds = %32
  %36 = load i32, ptr %31, align 8, !tbaa !22
  %.not.i44 = icmp sgt i32 %36, -1
  br i1 %.not.i44, label %37, label %.critedge

37:                                               ; preds = %35
  %38 = add nsw i32 %36, -1
  store i32 %38, ptr %31, align 8, !tbaa !22
  %39 = icmp eq i32 %38, 0
  br i1 %39, label %40, label %.critedge

40:                                               ; preds = %37
  tail call void @_Py_Dealloc(ptr noundef nonnull %31) #3
  br label %.critedge

41:                                               ; preds = %32
  %42 = tail call i32 @PyDict_SetItemString(ptr noundef nonnull %31, ptr noundef nonnull @.str.9, ptr noundef nonnull %33) #3
  %43 = icmp slt i32 %42, 0
  br i1 %43, label %44, label %55

44:                                               ; preds = %41
  %45 = load i32, ptr %31, align 8, !tbaa !22
  %.not.i46 = icmp sgt i32 %45, -1
  br i1 %.not.i46, label %46, label %Py_DECREF.exit47

46:                                               ; preds = %44
  %47 = add nsw i32 %45, -1
  store i32 %47, ptr %31, align 8, !tbaa !22
  %48 = icmp eq i32 %47, 0
  br i1 %48, label %49, label %Py_DECREF.exit47

49:                                               ; preds = %46
  tail call void @_Py_Dealloc(ptr noundef nonnull %31) #3
  br label %Py_DECREF.exit47

Py_DECREF.exit47:                                 ; preds = %44, %46, %49
  %50 = load i32, ptr %33, align 8, !tbaa !22
  %.not.i48 = icmp sgt i32 %50, -1
  br i1 %.not.i48, label %51, label %.critedge

51:                                               ; preds = %Py_DECREF.exit47
  %52 = add nsw i32 %50, -1
  store i32 %52, ptr %33, align 8, !tbaa !22
  %53 = icmp eq i32 %52, 0
  br i1 %53, label %54, label %.critedge

54:                                               ; preds = %51
  tail call void @_Py_Dealloc(ptr noundef nonnull %33) #3
  br label %.critedge

55:                                               ; preds = %41
  %56 = load i32, ptr %33, align 8, !tbaa !22
  %.not.i50 = icmp sgt i32 %56, -1
  br i1 %.not.i50, label %57, label %Py_DECREF.exit51

57:                                               ; preds = %55
  %58 = add nsw i32 %56, -1
  store i32 %58, ptr %33, align 8, !tbaa !22
  %59 = icmp eq i32 %58, 0
  br i1 %59, label %60, label %Py_DECREF.exit51

60:                                               ; preds = %57
  tail call void @_Py_Dealloc(ptr noundef nonnull %33) #3
  br label %Py_DECREF.exit51

Py_DECREF.exit51:                                 ; preds = %55, %57, %60
  %61 = tail call ptr @PyLong_FromLong(i64 noundef 1) #3
  %62 = icmp eq ptr %61, null
  br i1 %62, label %63, label %69

63:                                               ; preds = %Py_DECREF.exit51
  %64 = load i32, ptr %31, align 8, !tbaa !22
  %.not.i52 = icmp sgt i32 %64, -1
  br i1 %.not.i52, label %65, label %.critedge

65:                                               ; preds = %63
  %66 = add nsw i32 %64, -1
  store i32 %66, ptr %31, align 8, !tbaa !22
  %67 = icmp eq i32 %66, 0
  br i1 %67, label %68, label %.critedge

68:                                               ; preds = %65
  tail call void @_Py_Dealloc(ptr noundef nonnull %31) #3
  br label %.critedge

69:                                               ; preds = %Py_DECREF.exit51
  %70 = tail call i32 @PyDict_SetItemString(ptr noundef nonnull %31, ptr noundef nonnull @.str.10, ptr noundef nonnull %61) #3
  %71 = icmp slt i32 %70, 0
  br i1 %71, label %72, label %83

72:                                               ; preds = %69
  %73 = load i32, ptr %31, align 8, !tbaa !22
  %.not.i54 = icmp sgt i32 %73, -1
  br i1 %.not.i54, label %74, label %Py_DECREF.exit55

74:                                               ; preds = %72
  %75 = add nsw i32 %73, -1
  store i32 %75, ptr %31, align 8, !tbaa !22
  %76 = icmp eq i32 %75, 0
  br i1 %76, label %77, label %Py_DECREF.exit55

77:                                               ; preds = %74
  tail call void @_Py_Dealloc(ptr noundef nonnull %31) #3
  br label %Py_DECREF.exit55

Py_DECREF.exit55:                                 ; preds = %72, %74, %77
  %78 = load i32, ptr %61, align 8, !tbaa !22
  %.not.i56 = icmp sgt i32 %78, -1
  br i1 %.not.i56, label %79, label %.critedge

79:                                               ; preds = %Py_DECREF.exit55
  %80 = add nsw i32 %78, -1
  store i32 %80, ptr %61, align 8, !tbaa !22
  %81 = icmp eq i32 %80, 0
  br i1 %81, label %82, label %.critedge

82:                                               ; preds = %79
  tail call void @_Py_Dealloc(ptr noundef nonnull %61) #3
  br label %.critedge

83:                                               ; preds = %69
  %84 = load i32, ptr %61, align 8, !tbaa !22
  %.not.i58 = icmp sgt i32 %84, -1
  br i1 %.not.i58, label %85, label %Py_DECREF.exit59

85:                                               ; preds = %83
  %86 = add nsw i32 %84, -1
  store i32 %86, ptr %61, align 8, !tbaa !22
  %87 = icmp eq i32 %86, 0
  br i1 %87, label %88, label %Py_DECREF.exit59

88:                                               ; preds = %85
  tail call void @_Py_Dealloc(ptr noundef nonnull %61) #3
  br label %Py_DECREF.exit59

Py_DECREF.exit59:                                 ; preds = %83, %85, %88
  %89 = tail call i32 @PyModule_Add(ptr noundef %0, ptr noundef nonnull @.str.11, ptr noundef nonnull %31) #3
  %.lobit = ashr i32 %89, 31
  br label %.critedge

.critedge:                                        ; preds = %82, %79, %Py_DECREF.exit55, %68, %65, %63, %54, %51, %Py_DECREF.exit47, %40, %37, %35, %25, %22, %21, %Py_DECREF.exit59, %Py_DECREF.exit, %Py_DECREF.exit43, %12, %1
  %.0 = phi i32 [ -1, %1 ], [ -1, %Py_DECREF.exit ], [ -1, %12 ], [ -1, %Py_DECREF.exit43 ], [ %.lobit, %Py_DECREF.exit59 ], [ -1, %21 ], [ -1, %22 ], [ -1, %25 ], [ -1, %35 ], [ -1, %37 ], [ -1, %40 ], [ -1, %Py_DECREF.exit47 ], [ -1, %51 ], [ -1, %54 ], [ -1, %63 ], [ -1, %65 ], [ -1, %68 ], [ -1, %Py_DECREF.exit55 ], [ -1, %79 ], [ -1, %82 ]
  ret i32 %.0
}